(dp0
S'raining'
p1
I2
sS'aiden'
p2
I2
sS'suckss'
p3
I2
sS'sleek'
p4
I1
sS'woods'
p5
I1
sS'sleep'
p6
I11
sS'cancels'
p7
I1
sS'scheming'
p8
I1
sS'woody'
p9
I1
sS'appetite'
p10
I2
sS'hate'
p11
I9
sS'twitterother'
p12
I1
sS'forget'
p13
I1
sS'stinks'
p14
I1
sS'votes'
p15
I1
sS'haters'
p16
I1
sS'paris'
p17
I1
sS'tweet'
p18
I5
sS'ttyl'
p19
I1
sS'daley'
p20
I1
sS'hedo'
p21
I1
sS'exploding'
p22
I1
sS'lord'
p23
I1
sS'sorry'
p24
I7
sS'worth'
p25
I1
sS'litle'
p26
I1
sS'waahhh'
p27
I1
sS'hitech'
p28
I1
sS'shoot'
p29
I2
sS'bringing'
p30
I1
sS'tickets'
p31
I1
sS'school'
p32
I10
sS'basics'
p33
I1
sS'upi'
p34
I1
sS'cmf'
p35
I1
sS'venue'
p36
I1
sS'upload'
p37
I1
sS'roddick'
p38
I1
sS'karmada'
p39
I1
sS'clothes'
p40
I1
sS'enjoy'
p41
I2
sS'bicycle'
p42
I1
sS'tired'
p43
I2
sS'estimates'
p44
I1
sS'second'
p45
I1
sS'fabulous'
p46
I1
sS'bordeirlne'
p47
I1
sS'blue'
p48
I1
sS'employ'
p49
I1
sS'thunder'
p50
I2
sS'selected'
p51
I1
sS'revolves'
p52
I1
sS'als'
p53
I1
sS'causes'
p54
I1
sS'cars'
p55
I1
sS'new'
p56
I19
sS'told'
p57
I5
sS'gota'
p58
I2
sS'interns'
p59
I1
sS'men'
p60
I1
sS'weirdly'
p61
I1
sS'reported'
p62
I1
sS'feeding'
p63
I1
sS'studio'
p64
I3
sS'toher'
p65
I1
sS'mes'
p66
I1
sS'active'
p67
I1
sS'path'
p68
I1
sS'daughter'
p69
I1
sS'uplifting'
p70
I1
sS'credit'
p71
I2
sS'ayonna'
p72
I1
sS'fell'
p73
I1
sS'safins'
p74
I1
sS'yearswtf'
p75
I1
sS'ampforth'
p76
I1
sS'highly'
p77
I1
sS'brought'
p78
I1
sS'safina'
p79
I1
sS'opportunities'
p80
I1
sS'txt'
p81
I1
sS'cheating'
p82
I2
sS'sweater'
p83
I1
sS'played'
p84
I3
sS'arms'
p85
I1
sS'cali'
p86
I2
sS'asses'
p87
I1
sS'music'
p88
I3
sS'comcast'
p89
I1
sS'strike'
p90
I1
sS'saras'
p91
I1
sS'type'
p92
I2
sS'tell'
p93
I8
sS'seja'
p94
I1
sS'slopeand'
p95
I1
sS'holy'
p96
I1
sS'chilli'
p97
I1
sS'haha'
p98
I4
sS'award'
p99
I1
sS'phone'
p100
I7
sS'warm'
p101
I1
sS'organic'
p102
I1
sS'hold'
p103
I2
sS'listenin'
p104
I1
sS'word'
p105
I3
sS'room'
p106
I2
sS'rights'
p107
I1
sS'potted'
p108
I1
sS'work'
p109
I22
sS'iphonegiveway'
p110
I1
sS'movies'
p111
I1
sS'install'
p112
I1
sS'momacita'
p113
I1
sS'tweetdeck'
p114
I1
sS'want'
p115
I30
sS'woodpecker'
p116
I1
sS'absolute'
p117
I1
sS'end'
p118
I4
sS'scolding'
p119
I1
sS'hoo'
p120
I1
sS'hom'
p121
I1
sS'machine'
p122
I1
sS'tokra'
p123
I1
sS'hot'
p124
I3
sS'answer'
p125
I2
sS'lastfm'
p126
I1
sS'bebot'
p127
I1
sS'beach'
p128
I2
sS'pizza'
p129
I1
sS'badly'
p130
I2
sS'bday'
p131
I2
sS'coined'
p132
I1
sS'earlier'
p133
I1
sS'ticketsandpassports'
p134
I1
sS'caio'
p135
I1
sS'wrong'
p136
I6
sS'minimizes'
p137
I1
sS'sadmiss'
p138
I1
sS'lesbian'
p139
I1
sS'danny'
p140
I1
sS'childhood'
p141
I2
sS'allison'
p142
I1
sS'upside'
p143
I2
sS'goodbye'
p144
I1
sS'keeps'
p145
I1
sS'fan'
p146
I1
sS'realizing'
p147
I1
sS'maintenance'
p148
I1
sS'popsicle'
p149
I1
sS'office'
p150
I4
sS'welcomee'
p151
I1
sS'london'
p152
I2
sS'wud'
p153
I1
sS'ius'
p154
I1
sS'aiqht'
p155
I1
sS'playhouse'
p156
I1
sS'ima'
p157
I2
sS'chihuahua'
p158
I1
sS'fit'
p159
I1
sS'fix'
p160
I2
sS'crew'
p161
I1
sS'better'
p162
I16
sS'fic'
p163
I1
sS'ims'
p164
I1
sS'production'
p165
I1
sS'uof'
p166
I1
sS'weeks'
p167
I5
sS'coffee'
p168
I1
sS'iowa'
p169
I1
sS'safe'
p170
I1
sS'break'
p171
I4
sS'band'
p172
I2
sS'twits'
p173
I1
sS'bank'
p174
I1
sS'bread'
p175
I1
sS'meat'
p176
I1
sS'blushes'
p177
I1
sS'arrested'
p178
I1
sS'explode'
p179
I1
sS'haruhi'
p180
I1
sS'went'
p181
I6
sS'bone'
p182
I1
sS'luck'
p183
I2
sS'certifiably'
p184
I1
sS'gunna'
p185
I2
sS'series'
p186
I2
sS'andpoke'
p187
I1
sS'spider'
p188
I1
sS'burswood'
p189
I1
sS'bruce'
p190
I1
sS'forgot'
p191
I6
sS'saturday'
p192
I2
sS'gon'
p193
I1
sS'driving'
p194
I2
sS'god'
p195
I4
sS'content'
p196
I3
sS'laid'
p197
I1
sS'tomorrowand'
p198
I1
sS'nite'
p199
I2
sS'smh'
p200
I2
sS'got'
p201
I24
sS'canaveral'
p202
I1
sS'fave'
p203
I1
sS'free'
p204
I2
sS'standard'
p205
I1
sS'vets'
p206
I2
sS'wanted'
p207
I7
sS'ticketi'
p208
I1
sS'uva'
p209
I1
sS'dammit'
p210
I3
sS'birdie'
p211
I1
sS'created'
p212
I1
sS'atl'
p213
I1
sS'atm'
p214
I2
sS'days'
p215
I15
sS'ish'
p216
I1
sS'hopeless'
p217
I1
sS'signature'
p218
I1
sS'speeds'
p219
I1
sS'slept'
p220
I1
sS'nhl'
p221
I1
sS'examshelp'
p222
I1
sS'downside'
p223
I1
sS'delicious'
p224
I1
sS'comin'
p225
I1
sS'comic'
p226
I1
sS'emusic'
p227
I1
sS'toy'
p228
I1
sS'service'
p229
I1
sS'opportunity'
p230
I1
sS'girls'
p231
I4
sS'hollywood'
p232
I2
sS'dogs'
p233
I1
sS'listen'
p234
I1
sS'kno'
p235
I2
sS'midsummer'
p236
I1
sS'cereal'
p237
I1
sS'ellie'
p238
I1
sS'wardrobe'
p239
I1
sS'messing'
p240
I1
sS'fairytale'
p241
I1
sS'likely'
p242
I1
sS'shower'
p243
I2
sS'matter'
p244
I1
sS'silly'
p245
I1
sS'speaking'
p246
I1
sS'feeling'
p247
I17
sS'powers'
p248
I1
sS'tht'
p249
I1
sS'boston'
p250
I3
sS'modern'
p251
I1
sS'mind'
p252
I3
sS'ming'
p253
I1
sS'talking'
p254
I4
sS'rat'
p255
I1
sS'trackle'
p256
I1
sS'bogan'
p257
I1
sS'gonesame'
p258
I1
sS'seen'
p259
I4
sS'mins'
p260
I2
sS'leafy'
p261
I1
sS'ray'
p262
I1
sS'flippin'
p263
I1
sS'realy'
p264
I1
sS'chest'
p265
I2
sS'derek'
p266
I1
sS'doors'
p267
I1
sS'panties'
p268
I1
sS'benamp'
p269
I1
sS'shall'
p270
I1
sS'thrilled'
p271
I1
sS'screwing'
p272
I1
sS'powershot'
p273
I1
sS'wells'
p274
I1
sS'germany'
p275
I2
sS'plenty'
p276
I1
sS'entry'
p277
I1
sS'macbook'
p278
I1
sS'sideits'
p279
I1
sS'doo'
p280
I1
sS'rogers'
p281
I1
sS'alarm'
p282
I1
sS'camp'
p283
I2
sS'dog'
p284
I3
sS'bracket'
p285
I1
sS'tech'
p286
I1
sS'boyfriends'
p287
I1
sS'annoyed'
p288
I2
sS'guyss'
p289
I1
sS'kristen'
p290
I1
sS'saying'
p291
I2
sS'squarespace'
p292
I1
sS'lyrics'
p293
I1
sS'rapture'
p294
I1
sS'random'
p295
I2
sS'nominated'
p296
I1
sS'ending'
p297
I1
sS'sharpie'
p298
I1
sS'copy'
p299
I1
sS'givin'
p300
I1
sS'neena'
p301
I1
sS'hrs'
p302
I1
sS'sugar'
p303
I1
sS'rihanna'
p304
I1
sS'huz'
p305
I1
sS'mend'
p306
I1
sS'craper'
p307
I1
sS'jlew'
p308
I1
sS'wearing'
p309
I1
sS'geez'
p310
I2
sS'watch'
p311
I6
sS'integrity'
p312
I1
sS'lammeee'
p313
I1
sS'report'
p314
I2
sS'nasty'
p315
I2
sS'unfortunately'
p316
I1
sS'earl'
p317
I1
sS'bas'
p318
I1
sS'emo'
p319
I3
sS'dias'
p320
I1
sS'pinkeyenot'
p321
I1
sS'twice'
p322
I1
sS'bad'
p323
I16
sS'bae'
p324
I1
sS'shots'
p325
I1
sS'release'
p326
I3
sS'steak'
p327
I1
sS'ruins'
p328
I1
sS'thanks'
p329
I14
sS'stolenby'
p330
I1
sS'fluffy'
p331
I1
sS'lemonade'
p332
I1
sS'kashrut'
p333
I1
sS'goodnight'
p334
I3
sS'decided'
p335
I2
sS'horrendous'
p336
I1
sS'fail'
p337
I2
sS'miserable'
p338
I1
sS'bleh'
p339
I1
sS'best'
p340
I8
sS'said'
p341
I8
sS'lots'
p342
I2
sS'away'
p343
I9
sS'rings'
p344
I1
sS'prince'
p345
I2
sS'hopefully'
p346
I1
sS'mum'
p347
I1
sS'sorts'
p348
I1
sS'encounters'
p349
I1
sS'thelovelybones'
p350
I1
sS'omg'
p351
I3
sS'boss'
p352
I2
sS'booniesi'
p353
I1
sS'wtf'
p354
I2
sS'news'
p355
I6
sS'picking'
p356
I1
sS'blasted'
p357
I1
sS'kitchen'
p358
I1
sS'bras'
p359
I1
sS'cos'
p360
I1
sS'mmmyeahh'
p361
I1
sS'bachelorette'
p362
I1
sS'country'
p363
I1
sS'ill'
p364
I10
sS'coz'
p365
I2
sS'amazing'
p366
I3
sS'lookin'
p367
I1
sS'anyer'
p368
I1
sS'asked'
p369
I1
sS'ily'
p370
I2
sS'tough'
p371
I1
sS'irresponsible'
p372
I1
sS'massive'
p373
I1
sS'trust'
p374
I3
sS'churchi'
p375
I1
sS'speak'
p376
I1
sS'bathroom'
p377
I1
sS'cyrus'
p378
I1
sS'confident'
p379
I1
sS'basil'
p380
I1
sS'lovely'
p381
I1
sS'correction'
p382
I1
sS'teenager'
p383
I1
sS'life'
p384
I6
sS'hospitalized'
p385
I1
sS'yeahuhh'
p386
I1
sS'sunshine'
p387
I1
sS'lift'
p388
I1
sS'chile'
p389
I1
sS'child'
p390
I2
sS'catch'
p391
I2
sS'allimma'
p392
I1
sS'nowso'
p393
I1
sS'exception'
p394
I1
sS'oftweet'
p395
I1
sS'air'
p396
I3
sS'aim'
p397
I1
sS'ugly'
p398
I2
sS'near'
p399
I1
sS'manee'
p400
I1
sS'suppose'
p401
I2
sS'teachers'
p402
I1
sS'voice'
p403
I2
sS'chilling'
p404
I2
sS'pessimistic'
p405
I1
sS'mexico'
p406
I1
sS'shame'
p407
I1
sS'australia'
p408
I2
sS'anticipating'
p409
I1
sS'cook'
p410
I1
sS'posterous'
p411
I1
sS'quizzage'
p412
I1
sS'things'
p413
I6
sS'make'
p414
I13
sS'roland'
p415
I1
sS'dvds'
p416
I1
sS'elliott'
p417
I1
sS'toasted'
p418
I1
sS'definately'
p419
I2
sS'hamster'
p420
I1
sS'grandpalt'
p421
I1
sS'raid'
p422
I1
sS'smf'
p423
I1
sS'ella'
p424
I1
sS'hang'
p425
I3
sS'rain'
p426
I2
sS'hand'
p427
I1
sS'waterfall'
p428
I1
sS'garlic'
p429
I1
sS'dark'
p430
I2
sS'mcnuggets'
p431
I1
sS'kid'
p432
I3
sS'dylan'
p433
I1
sS'kept'
p434
I1
sS'intrusion'
p435
I1
sS'thx'
p436
I3
sS'thu'
p437
I1
sS'youre'
p438
I3
sS'uploading'
p439
I1
sS'ocean'
p440
I1
sS'tho'
p441
I2
sS'burgers'
p442
I1
sS'puurfect'
p443
I1
sS'mamma'
p444
I1
sS'mother'
p445
I1
sS'hearts'
p446
I1
sS'liqueur'
p447
I1
sS'dads'
p448
I2
sS'left'
p449
I4
sS'just'
p450
I62
sS'yea'
p451
I2
sS'photo'
p452
I3
sS'laptop'
p453
I1
sS'wednesday'
p454
I1
sS'sweari'
p455
I1
sS'yey'
p456
I1
sS'everton'
p457
I2
sS'psych'
p458
I1
sS'congratz'
p459
I1
sS'human'
p460
I1
sS'yep'
p461
I3
sS'yes'
p462
I3
sS'rushing'
p463
I1
sS'loveimu'
p464
I1
sS'handshake'
p465
I1
sS'hills'
p466
I1
sS'ambergirl'
p467
I1
sS'cornell'
p468
I1
sS'character'
p469
I1
sS'board'
p470
I1
sS'beloved'
p471
I1
sS'save'
p472
I2
sS'gave'
p473
I3
sS'dreami'
p474
I1
sS'tmrw'
p475
I1
sS'reaallly'
p476
I1
sS'judge'
p477
I1
sS'burnt'
p478
I1
sS'vandals'
p479
I1
sS'dreams'
p480
I2
sS'population'
p481
I1
sS'archies'
p482
I1
sS'cooler'
p483
I1
sS'hunt'
p484
I1
sS'orlando'
p485
I2
sS'alice'
p486
I1
sS'theyre'
p487
I1
sS'private'
p488
I1
sS'avatar'
p489
I1
sS'night'
p490
I28
sS'amor'
p491
I1
sS'portuguese'
p492
I1
sS'right'
p493
I12
sS'old'
p494
I3
sS'people'
p495
I10
sS'sends'
p496
I1
sS'crown'
p497
I2
sS'jonahwhats'
p498
I1
sS'dead'
p499
I3
sS'wwe'
p500
I1
sS'hassle'
p501
I1
sS'foreverr'
p502
I1
sS'dear'
p503
I1
sS'confusing'
p504
I1
sS'cnt'
p505
I1
sS'juusst'
p506
I1
sS'opposite'
p507
I1
sS'comments'
p508
I4
sS'asking'
p509
I2
sS'sleepies'
p510
I1
sS'beating'
p511
I1
sS'mosquito'
p512
I1
sS'core'
p513
I1
sS'shakes'
p514
I1
sS'dunkin'
p515
I1
sS'deleted'
p516
I2
sS'pose'
p517
I1
sS'disappeared'
p518
I1
sS'grindin'
p519
I1
sS'plc'
p520
I1
sS'graduated'
p521
I1
sS'meyet'
p522
I1
sS'post'
p523
I3
sS'super'
p524
I3
sS'missive'
p525
I1
sS'chapter'
p526
I1
sS'neighbours'
p527
I1
sS'commie'
p528
I1
sS'dollars'
p529
I1
sS'sizzling'
p530
I1
sS'dinner'
p531
I3
sS'anime'
p532
I1
sS'cancelledd'
p533
I1
sS'sob'
p534
I1
sS'whats'
p535
I6
sS'ahh'
p536
I2
sS'soo'
p537
I6
sS'negative'
p538
I1
sS'sos'
p539
I1
sS'batt'
p540
I1
sS'ppt'
p541
I1
sS'sox'
p542
I1
sS'lazzyy'
p543
I1
sS'strangely'
p544
I1
sS'inspected'
p545
I1
sS'gallery'
p546
I1
sS'moval'
p547
I1
sS'joseph'
p548
I1
sS'hapnin'
p549
I1
sS'way'
p550
I7
sS'sniffles'
p551
I1
sS'phonelol'
p552
I1
sS'wat'
p553
I1
sS'metabolism'
p554
I1
sS'happy'
p555
I13
sS'head'
p556
I10
sS'celulite'
p557
I1
sS'tigers'
p558
I1
sS'alistairs'
p559
I1
sS'wireless'
p560
I1
sS'melanie'
p561
I1
sS'bmth'
p562
I1
sS'hear'
p563
I5
sS'true'
p564
I1
sS'boro'
p565
I1
sS'katecouples'
p566
I1
sS'whyy'
p567
I1
sS'mtv'
p568
I1
sS'bargain'
p569
I1
sS'isand'
p570
I1
sS'emotional'
p571
I1
sS'delete'
p572
I1
sS'abusing'
p573
I1
sS'proud'
p574
I3
sS'trii'
p575
I1
sS'drive'
p576
I4
sS'shiz'
p577
I1
sS'yuck'
p578
I1
sS'reznor'
p579
I1
sS'annoying'
p580
I1
sS'check'
p581
I3
sS'shit'
p582
I4
sS'tix'
p583
I1
sS'aunts'
p584
I1
sS'floor'
p585
I2
sS'handed'
p586
I1
sS'reality'
p587
I3
sS'til'
p588
I3
sS'setting'
p589
I1
sS'digital'
p590
I1
sS'test'
p591
I1
sS'hangin'
p592
I1
sS'smell'
p593
I1
sS'roll'
p594
I2
sS'picture'
p595
I2
sS'brothers'
p596
I2
sS'phoenix'
p597
I1
sS'yuuutsu'
p598
I1
sS'dies'
p599
I4
sS'felt'
p600
I1
sS'update'
p601
I1
sS'practisinghow'
p602
I1
sS'deathbed'
p603
I1
sS'weekend'
p604
I12
sS'died'
p605
I6
sS'wcream'
p606
I1
sS'longer'
p607
I1
sS'hiim'
p608
I1
sS'antibiotics'
p609
I1
sS'daily'
p610
I2
sS'vietnam'
p611
I1
sS'time'
p612
I17
sS'fonebook'
p613
I1
sS'songs'
p614
I1
sS'neighbors'
p615
I1
sS'managed'
p616
I1
sS'dance'
p617
I4
sS'charlies'
p618
I1
sS'england'
p619
I2
sS'grateful'
p620
I1
sS'skin'
p621
I1
sS'fawcett'
p622
I3
sS'vet'
p623
I1
sS'yummy'
p624
I2
sS'religion'
p625
I1
sS'editors'
p626
I1
sS'gigs'
p627
I2
sS'suzumiya'
p628
I1
sS'finally'
p629
I5
sS'xbla'
p630
I1
sS'kstew'
p631
I1
sS'bestt'
p632
I1
sS'busy'
p633
I3
sS'coop'
p634
I1
sS'blase'
p635
I1
sS'choice'
p636
I1
sS'vegas'
p637
I1
sS'drexel'
p638
I1
sS'ghostbusters'
p639
I1
sS'stays'
p640
I1
sS'pixma'
p641
I1
sS'join'
p642
I1
sS'userfocused'
p643
I1
sS'minute'
p644
I1
sS'cool'
p645
I6
sS'gnarly'
p646
I1
sS'babbyy'
p647
I1
sS'clouds'
p648
I1
sS'nectar'
p649
I1
sS'gud'
p650
I1
sS'tear'
p651
I2
sS'killed'
p652
I1
sS'gnarls'
p653
I1
sS'posts'
p654
I1
sS'brother'
p655
I3
sS'gum'
p656
I1
sS'leave'
p657
I10
sS'baltimore'
p658
I1
sS'settle'
p659
I1
sS'loads'
p660
I2
sS'thestreetforce'
p661
I1
sS'woven'
p662
I1
sS'famed'
p663
I1
sS'yall'
p664
I3
sS'dis'
p665
I1
sS'upper'
p666
I1
sS'says'
p667
I3
sS'regret'
p668
I1
sS'porn'
p669
I1
sS'sigh'
p670
I2
sS'obsolete'
p671
I1
sS'cost'
p672
I1
sS'talker'
p673
I1
sS'trent'
p674
I2
sS'yippee'
p675
I1
sS'chicken'
p676
I2
sS'drinks'
p677
I1
sS'lmbo'
p678
I1
sS'headset'
p679
I1
sS'postman'
p680
I1
sS'heres'
p681
I1
sS'uniform'
p682
I1
sS'current'
p683
I1
sS'hungry'
p684
I1
sS'health'
p685
I1
sS'goes'
p686
I4
sS'shared'
p687
I1
sS'ground'
p688
I1
sS'hummer'
p689
I1
sS'unsure'
p690
I2
sS'dwarf'
p691
I1
sS'oldies'
p692
I2
sS'guardian'
p693
I1
sS'funeral'
p694
I1
sS'french'
p695
I4
sS'water'
p696
I1
sS'downloaded'
p697
I1
sS'woot'
p698
I1
sS'baseball'
p699
I2
sS'groups'
p700
I1
sS'monies'
p701
I1
sS'appears'
p702
I1
sS'nother'
p703
I1
sS'wait'
p704
I8
sS'buck'
p705
I1
sS'brilliant'
p706
I1
sS'shift'
p707
I1
sS'lakers'
p708
I1
sS'exami'
p709
I1
sS'sleepyi'
p710
I1
sS'exams'
p711
I1
sS'suggestion'
p712
I1
sS'boo'
p713
I8
sS'weird'
p714
I1
sS'studies'
p715
I2
sS'genuinely'
p716
I1
sS'alergic'
p717
I1
sS'tasks'
p718
I1
sS'love'
p719
I23
sS'bloody'
p720
I1
sS'losing'
p721
I2
sS'seashore'
p722
I1
sS'fake'
p723
I2
sS'working'
p724
I5
sS'sake'
p725
I1
sS'positive'
p726
I1
sS'angry'
p727
I4
sS'dude'
p728
I3
sS'france'
p729
I2
sS'msn'
p730
I2
sS'live'
p731
I3
sS'arrgghh'
p732
I1
sS'iphone'
p733
I5
sS'wondering'
p734
I1
sS'ahhh'
p735
I1
sS'msg'
p736
I1
sS'believing'
p737
I1
sS'australian'
p738
I1
sS'angels'
p739
I3
sS'today'
p740
I28
sS'ood'
p741
I1
sS'afford'
p742
I2
sS'chocolate'
p743
I3
sS'effort'
p744
I1
sS'fly'
p745
I2
sS'car'
p746
I6
sS'cap'
p747
I1
sS'cat'
p748
I1
sS'reviews'
p749
I1
sS'wallet'
p750
I1
sS'hardest'
p751
I1
sS'mousey'
p752
I1
sS'commies'
p753
I1
sS'following'
p754
I2
sS'cab'
p755
I2
sS'arrive'
p756
I1
sS'laughter'
p757
I1
sS'nitedamn'
p758
I1
sS'heart'
p759
I4
sS'crazy'
p760
I1
sS'figure'
p761
I1
sS'predict'
p762
I1
sS'muah'
p763
I1
sS'awesome'
p764
I8
sS'fuck'
p765
I12
sS'council'
p766
I2
sS'revising'
p767
I1
sS'rishabh'
p768
I1
sS'means'
p769
I2
sS'magazine'
p770
I1
sS'nyt'
p771
I1
sS'write'
p772
I2
sS'till'
p773
I6
sS'sunday'
p774
I8
sS'fourth'
p775
I1
sS'nyc'
p776
I1
sS'taylorrhicks'
p777
I1
sS'afternoon'
p778
I1
sS'edinburgh'
p779
I1
sS'staying'
p780
I1
sS'leavin'
p781
I1
sS'crashed'
p782
I1
sS'mac'
p783
I1
sS'birthday'
p784
I2
sS'mae'
p785
I1
sS'designed'
p786
I1
sS'date'
p787
I2
sS'suck'
p788
I2
sS'guys'
p789
I11
sS'man'
p790
I4
sS'stress'
p791
I1
sS'conscious'
p792
I1
sS'maybe'
p793
I7
sS'rollin'
p794
I1
sS'obs'
p795
I1
sS'truck'
p796
I1
sS'haterade'
p797
I1
sS'swollen'
p798
I2
sS'definitions'
p799
I1
sS'awakefinallyrandom'
p800
I1
sS'talk'
p801
I7
sS'typical'
p802
I2
sS'cute'
p803
I2
sS'sharepoint'
p804
I1
sS'blocker'
p805
I1
sS'wishing'
p806
I1
sS'years'
p807
I3
sS'brain'
p808
I1
sS'motions'
p809
I1
sS'cuts'
p810
I1
sS'marshmallows'
p811
I1
sS'cold'
p812
I3
sS'thank'
p813
I6
sS'jin'
p814
I1
sS'interesting'
p815
I1
sS'torn'
p816
I1
sS'sexiest'
p817
I1
sS'clubbing'
p818
I1
sS'yorkshire'
p819
I1
sS'reubens'
p820
I1
sS'thanx'
p821
I1
sS'tweets'
p822
I3
sS'mail'
p823
I2
sS'visiting'
p824
I1
sS'happened'
p825
I6
sS'ovelt'
p826
I1
sS'non'
p827
I1
sS'lonely'
p828
I2
sS'moms'
p829
I2
sS'bein'
p830
I1
sS'feelin'
p831
I2
sS'lunch'
p832
I2
sS'half'
p833
I1
sS'ppl'
p834
I1
sS'twilight'
p835
I1
sS'bullshit'
p836
I1
sS'wont'
p837
I8
sS'opera'
p838
I1
sS'times'
p839
I4
sS'rock'
p840
I2
sS'quarter'
p841
I1
sS'yeah'
p842
I4
sS'poopie'
p843
I1
sS'year'
p844
I8
sS'girl'
p845
I3
sS'teams'
p846
I1
sS'monitors'
p847
I2
sS'buzz'
p848
I1
sS'album'
p849
I1
sS'living'
p850
I1
sS'space'
p851
I1
sS'squared'
p852
I1
sS'ampasked'
p853
I1
sS'looking'
p854
I4
sS'mess'
p855
I1
sS'seriously'
p856
I4
sS'penguins'
p857
I1
sS'beautifulylost'
p858
I1
sS'hacked'
p859
I1
sS'internet'
p860
I2
sS'shows'
p861
I1
sS'sheffield'
p862
I1
sS'million'
p863
I4
sS'quite'
p864
I5
sS'argh'
p865
I1
sS'complicated'
p866
I1
sS'grandma'
p867
I3
sS'quits'
p868
I1
sS'amigos'
p869
I1
sS'cough'
p870
I1
sS'card'
p871
I2
sS'thankyou'
p872
I1
sS'fettucini'
p873
I1
sS'thing'
p874
I6
sS'place'
p875
I1
sS'footwear'
p876
I1
sS'think'
p877
I25
sS'frequent'
p878
I1
sS'cheese'
p879
I2
sS'bling'
p880
I1
sS'softball'
p881
I1
sS'potter'
p882
I1
sS'seasonrematch'
p883
I1
sS'suspended'
p884
I3
sS'spanish'
p885
I1
sS'vote'
p886
I1
sS'sounds'
p887
I1
sS'drove'
p888
I1
sS'open'
p889
I3
sS'tomorrow'
p890
I13
sS'city'
p891
I3
sS'little'
p892
I5
sS'ian'
p893
I1
sS'checked'
p894
I1
sS'bite'
p895
I1
sS'sadbecuz'
p896
I1
sS'drunvalo'
p897
I1
sS'fml'
p898
I2
sS'tragic'
p899
I1
sS'white'
p900
I2
sS'bits'
p901
I1
sS'friend'
p902
I4
sS'eyes'
p903
I2
sS'hug'
p904
I2
sS'hub'
p905
I1
sS'cope'
p906
I1
sS'euromillions'
p907
I1
sS'huh'
p908
I2
sS'huu'
p909
I1
sS'gin'
p910
I1
sS'tourny'
p911
I1
sS'becuz'
p912
I1
sS'boyfriend'
p913
I1
sS'wide'
p914
I2
sS'television'
p915
I1
sS'lmao'
p916
I2
sS'depressed'
p917
I3
sS'gotta'
p918
I4
sS'diplomatic'
p919
I1
sS'immediatelyoff'
p920
I1
sS'future'
p921
I1
sS'college'
p922
I1
sS'fizz'
p923
I1
sS'dissapointed'
p924
I1
sS'pre'
p925
I1
sS'angel'
p926
I1
sS'homelesscreeps'
p927
I1
sS'hoes'
p928
I1
sS'locations'
p929
I1
sS'sad'
p930
I17
sS'say'
p931
I12
sS'rained'
p932
I2
sS'breakfast'
p933
I3
sS'saw'
p934
I4
sS'sat'
p935
I2
sS'speakers'
p936
I1
sS'answering'
p937
I2
sS'shocked'
p938
I1
sS'note'
p939
I1
sS'sannesias'
p940
I1
sS'online'
p941
I1
sS'green'
p942
I1
sS'eveer'
p943
I1
sS'reripped'
p944
I1
sS'butterfly'
p945
I1
sS'ironically'
p946
I1
sS'sure'
p947
I6
sS'pain'
p948
I6
sS'hores'
p949
I1
sS'normal'
p950
I1
sS'arguing'
p951
I1
sS'knew'
p952
I4
sS'paid'
p953
I1
sS'tlkd'
p954
I1
sS'yepi'
p955
I1
sS'forever'
p956
I3
sS'especially'
p957
I1
sS'later'
p958
I3
sS'sale'
p959
I1
sS'badd'
p960
I1
sS'bedss'
p961
I1
sS'certification'
p962
I1
sS'cheap'
p963
I1
sS'fifty'
p964
I2
sS'tks'
p965
I1
sS'imagined'
p966
I1
sS'cheeseburgers'
p967
I1
sS'crashing'
p968
I1
sS'aint'
p969
I2
sS'helio'
p970
I1
sS'slow'
p971
I2
sS'dice'
p972
I1
sS'upsetim'
p973
I1
sS'storms'
p974
I1
sS'state'
p975
I2
sS'foward'
p976
I1
sS'tears'
p977
I3
sS'going'
p978
I25
sS'black'
p979
I4
sS'landin'
p980
I1
sS'boyle'
p981
I2
sS'hippo'
p982
I1
sS'whilei'
p983
I1
sS'celebrate'
p984
I2
sS'freaking'
p985
I1
sS'frustrated'
p986
I2
sS'morning'
p987
I10
sS'naked'
p988
I1
sS'stupid'
p989
I8
sS'miley'
p990
I2
sS'pants'
p991
I1
sS'xmas'
p992
I1
sS'husband'
p993
I2
sS'concert'
p994
I4
sS'burst'
p995
I1
sS'asleep'
p996
I1
sS'anyways'
p997
I1
sS'parking'
p998
I1
sS'surgery'
p999
I1
sS'wonder'
p1000
I3
sS'satisfying'
p1001
I1
sS'bicyclist'
p1002
I1
sS'ways'
p1003
I1
sS'boy'
p1004
I1
sS'outside'
p1005
I1
sS'wellyou'
p1006
I1
sS'reading'
p1007
I1
sS'grin'
p1008
I1
sS'fir'
p1009
I1
sS'jobs'
p1010
I1
sS'screen'
p1011
I1
sS'killing'
p1012
I4
sS'guitar'
p1013
I1
sS'awards'
p1014
I1
sS'hurts'
p1015
I4
sS'come'
p1016
I11
sS'jfk'
p1017
I1
sS'blame'
p1018
I2
sS'feeeling'
p1019
I1
sS'region'
p1020
I1
sS'qqing'
p1021
I1
sS'quiet'
p1022
I1
sS'contract'
p1023
I1
sS'tour'
p1024
I2
sS'maggies'
p1025
I1
sS'senator'
p1026
I1
sS'comes'
p1027
I3
sS'cancer'
p1028
I3
sS'pow'
p1029
I1
sS'jeans'
p1030
I1
sS'pop'
p1031
I3
sS'extinct'
p1032
I1
sS'poll'
p1033
I1
sS'considering'
p1034
I1
sS'clashes'
p1035
I1
sS'lifes'
p1036
I1
sS'cares'
p1037
I1
sS'stretch'
p1038
I1
sS'phallic'
p1039
I1
sS'mark'
p1040
I1
sS'breath'
p1041
I1
sS'lifee'
p1042
I1
sS'tonsils'
p1043
I1
sS'wants'
p1044
I1
sS'shopping'
p1045
I4
sS'wantt'
p1046
I1
sS'tiger'
p1047
I1
sS'photos'
p1048
I1
sS'wake'
p1049
I2
sS'external'
p1050
I1
sS'utube'
p1051
I1
sS'rinitis'
p1052
I1
sS'squirrels'
p1053
I1
sS'paying'
p1054
I1
sS'myself'
p1055
I7
sS'straighten'
p1056
I1
sS'squeezes'
p1057
I1
sS'cast'
p1058
I1
sS'cancelled'
p1059
I1
sS'ive'
p1060
I6
sS'famp'
p1061
I1
sS'canon'
p1062
I2
sS'sleeping'
p1063
I3
sS'blah'
p1064
I1
sS'zahra'
p1065
I1
sS'ivs'
p1066
I1
sS'heels'
p1067
I1
sS'motivated'
p1068
I1
sS'worry'
p1069
I5
sS'tlc'
p1070
I1
sS'friendster'
p1071
I1
sS'author'
p1072
I1
sS'pay'
p1073
I1
sS'nighter'
p1074
I1
sS'trip'
p1075
I2
sS'semisonic'
p1076
I1
sS'followers'
p1077
I4
sS'urself'
p1078
I1
sS'wooven'
p1079
I1
sS'thinkbecuz'
p1080
I1
sS'document'
p1081
I1
sS'status'
p1082
I3
sS'finish'
p1083
I1
sS'sickness'
p1084
I2
sS'downloads'
p1085
I1
sS'running'
p1086
I1
sS'barber'
p1087
I1
sS'totally'
p1088
I1
sS'complained'
p1089
I1
sS'smilecuz'
p1090
I1
sS'theater'
p1091
I1
sS'dying'
p1092
I3
sS'roommate'
p1093
I1
sS'eureka'
p1094
I1
sS'breeze'
p1095
I1
sS'trains'
p1096
I1
sS'hummin'
p1097
I1
sS'model'
p1098
I1
sS'charged'
p1099
I1
sS'summer'
p1100
I7
sS'nai'
p1101
I1
sS'money'
p1102
I2
sS'drugsgood'
p1103
I1
sS'rest'
p1104
I4
sS'violent'
p1105
I2
sS'wifey'
p1106
I1
sS'death'
p1107
I1
sS'thinking'
p1108
I1
sS'rose'
p1109
I1
sS'offcant'
p1110
I1
sS'improvement'
p1111
I1
sS'wellmoving'
p1112
I1
sS'lets'
p1113
I3
sS'roughplaces'
p1114
I1
sS'pill'
p1115
I1
sS'swim'
p1116
I1
sS'moz'
p1117
I1
sS'frown'
p1118
I1
sS'read'
p1119
I1
sS'soundly'
p1120
I1
sS'ame'
p1121
I1
sS'wompp'
p1122
I1
sS'amy'
p1123
I1
sS'traffic'
p1124
I1
sS'insist'
p1125
I1
sS'mom'
p1126
I6
sS'amp'
p1127
I23
sS'disappointed'
p1128
I1
sS'moe'
p1129
I1
sS'fortune'
p1130
I1
sS'stranger'
p1131
I1
sS'pounds'
p1132
I1
sS'hotel'
p1133
I1
sS'bracelet'
p1134
I1
sS'miracle'
p1135
I1
sS'server'
p1136
I1
sS'blackberry'
p1137
I1
sS'served'
p1138
I1
sS'pacific'
p1139
I1
sS'niggahz'
p1140
I1
sS'thinks'
p1141
I1
sS'karenwild'
p1142
I1
sS'roomies'
p1143
I2
sS'ehugs'
p1144
I1
sS'genetics'
p1145
I1
sS'mood'
p1146
I5
sS'douchebag'
p1147
I1
sS'nooo'
p1148
I1
sS'moon'
p1149
I1
sS'throat'
p1150
I1
sS'famliy'
p1151
I1
sS'aussie'
p1152
I1
sS'porter'
p1153
I1
sS'cramps'
p1154
I1
sS'friendlylol'
p1155
I1
sS'business'
p1156
I2
sS'tda'
p1157
I1
sS'broken'
p1158
I2
sS'leadership'
p1159
I1
sS'throw'
p1160
I1
sS'stone'
p1161
I1
sS'package'
p1162
I1
sS'ack'
p1163
I1
sS'island'
p1164
I1
sS'fringe'
p1165
I1
sS'favorite'
p1166
I3
sS'acl'
p1167
I1
sS'dibs'
p1168
I1
sS'blingg'
p1169
I1
sS'neighbor'
p1170
I1
sS'mixed'
p1171
I1
sS'mean'
p1172
I6
sS'backup'
p1173
I2
sS'road'
p1174
I1
sS'heater'
p1175
I1
sS'ladies'
p1176
I2
sS'burning'
p1177
I1
sS'anyonefeeling'
p1178
I1
sS'image'
p1179
I1
sS'blessed'
p1180
I1
sS'bedtime'
p1181
I2
sS'parties'
p1182
I1
sS'uptown'
p1183
I1
sS'youu'
p1184
I2
sS'beautyful'
p1185
I1
sS'fast'
p1186
I1
sS'cate'
p1187
I1
sS'prepare'
p1188
I1
sS'hes'
p1189
I4
sS'hey'
p1190
I3
sS'lol'
p1191
I19
sS'hed'
p1192
I1
sS'start'
p1193
I5
sS'cats'
p1194
I1
sS'lions'
p1195
I1
sS'low'
p1196
I1
sS'lot'
p1197
I3
sS'treat'
p1198
I1
sS'complete'
p1199
I1
sS'kittens'
p1200
I1
sS'reduce'
p1201
I1
sS'jun'
p1202
I1
sS'allan'
p1203
I1
sS'jus'
p1204
I3
sS'bookstore'
p1205
I1
sS'survived'
p1206
I1
sS'trying'
p1207
I1
sS'pull'
p1208
I2
sS'keahey'
p1209
I1
sS'drills'
p1210
I1
sS'strawberry'
p1211
I1
sS'dirty'
p1212
I1
sS'kicked'
p1213
I1
sS'manuel'
p1214
I1
sS'clear'
p1215
I1
sS'gone'
p1216
I7
sS'cba'
p1217
I1
sS'ohh'
p1218
I1
sS'exhausted'
p1219
I1
sS'deep'
p1220
I2
sS'general'
p1221
I1
sS'kuch'
p1222
I1
sS'britain'
p1223
I1
sS'politics'
p1224
I1
sS'moves'
p1225
I1
sS'nerd'
p1226
I1
sS'selfish'
p1227
I1
sS'rubbed'
p1228
I1
sS'hungerrelated'
p1229
I1
sS'deserve'
p1230
I1
sS'ringtone'
p1231
I1
sS'graduate'
p1232
I2
sS'tight'
p1233
I2
sS'sleepingaahh'
p1234
I1
sS'puppy'
p1235
I1
sS'boyits'
p1236
I1
sS'poor'
p1237
I3
sS'students'
p1238
I1
sS'symbol'
p1239
I1
sS'finale'
p1240
I1
sS'nightday'
p1241
I1
sS'finaly'
p1242
I1
sS'chris'
p1243
I2
sS'finals'
p1244
I1
sS'alcohol'
p1245
I1
sS'wife'
p1246
I1
sS'hello'
p1247
I2
sS'mass'
p1248
I1
sS'starting'
p1249
I1
sS'bullpen'
p1250
I1
sS'tomorrows'
p1251
I1
sS'caused'
p1252
I1
sS'lack'
p1253
I1
sS'callnot'
p1254
I1
sS'month'
p1255
I1
sS'boyfie'
p1256
I1
sS'follow'
p1257
I5
sS'everyones'
p1258
I2
sS'children'
p1259
I2
sS'willway'
p1260
I1
sS'wmy'
p1261
I1
sS'referring'
p1262
I1
sS'auckland'
p1263
I1
sS'baddest'
p1264
I1
sS'thursday'
p1265
I2
sS'champions'
p1266
I1
sS'aaron'
p1267
I1
sS'smile'
p1268
I3
sS'enjoying'
p1269
I2
sS'norm'
p1270
I1
sS'case'
p1271
I2
sS'woman'
p1272
I1
sS'worse'
p1273
I4
sS'sitting'
p1274
I4
sS'far'
p1275
I4
sS'fav'
p1276
I1
sS'fat'
p1277
I2
sS'worst'
p1278
I2
sS'fall'
p1279
I1
sS'awful'
p1280
I1
sS'sony'
p1281
I1
sS'ticket'
p1282
I3
sS'difference'
p1283
I2
sS'condition'
p1284
I1
sS'mothers'
p1285
I2
sS'celebrity'
p1286
I1
sS'laying'
p1287
I1
sS'grandfather'
p1288
I1
sS'large'
p1289
I1
sS'sane'
p1290
I1
sS'harry'
p1291
I2
sS'small'
p1292
I2
sS'cookies'
p1293
I1
sS'rats'
p1294
I2
sS'tea'
p1295
I1
sS'past'
p1296
I1
sS'design'
p1297
I2
sS'pass'
p1298
I2
sS'creatures'
p1299
I1
sS'abc'
p1300
I1
sS'clock'
p1301
I1
sS'sun'
p1302
I1
sS'caffeine'
p1303
I1
sS'xox'
p1304
I1
sS'guna'
p1305
I1
sS'crush'
p1306
I1
sS'abt'
p1307
I2
sS'learned'
p1308
I1
sS'blankeys'
p1309
I1
sS'public'
p1310
I2
sS'sux'
p1311
I1
sS'iran'
p1312
I1
sS'hungover'
p1313
I1
sS'vale'
p1314
I1
sS'hours'
p1315
I5
sS'tracks'
p1316
I1
sS'jonas'
p1317
I5
sS'search'
p1318
I1
sS'ahead'
p1319
I1
sS'fwd'
p1320
I1
sS'vegetarian'
p1321
I1
sS'harddrive'
p1322
I1
sS'experience'
p1323
I1
sS'airport'
p1324
I4
sS'arent'
p1325
I2
sS'bcds'
p1326
I1
sS'heartbroken'
p1327
I1
sS'exited'
p1328
I1
sS'superduper'
p1329
I1
sS'family'
p1330
I4
sS'suddenly'
p1331
I1
sS'deathmatch'
p1332
I1
sS'jailbreak'
p1333
I1
sS'netball'
p1334
I2
sS'texts'
p1335
I2
sS'wallmath'
p1336
I1
sS'gosh'
p1337
I1
sS'swastikas'
p1338
I1
sS'eye'
p1339
I1
sS'donuts'
p1340
I1
sS'charge'
p1341
I1
sS'moro'
p1342
I1
sS'kick'
p1343
I1
sS'autographs'
p1344
I1
sS'flat'
p1345
I1
sS'door'
p1346
I1
sS'mad'
p1347
I1
sS'landed'
p1348
I1
sS'floyd'
p1349
I1
sS'stick'
p1350
I1
sS'broke'
p1351
I3
sS'boredd'
p1352
I1
sS'glad'
p1353
I2
sS'town'
p1354
I1
sS'hour'
p1355
I1
sS'middle'
p1356
I1
sS'science'
p1357
I2
sS'sucks'
p1358
I7
sS'dem'
p1359
I1
sS'henderson'
p1360
I1
sS'toorip'
p1361
I1
sS'def'
p1362
I1
sS'beautiful'
p1363
I6
sS'stubborn'
p1364
I1
sS'diabetic'
p1365
I1
sS'stated'
p1366
I1
sS'chicagob'
p1367
I1
sS'toolio'
p1368
I1
sS'huge'
p1369
I2
sS'court'
p1370
I2
sS'needa'
p1371
I1
sS'hugs'
p1372
I1
sS'explains'
p1373
I1
sS'eatting'
p1374
I1
sS'plant'
p1375
I2
sS'plans'
p1376
I1
sS'boreddoing'
p1377
I1
sS'advice'
p1378
I1
sS'plane'
p1379
I2
sS'coming'
p1380
I5
sS'response'
p1381
I1
sS'teke'
p1382
I1
sS'short'
p1383
I2
sS'jodie'
p1384
I1
sS'susan'
p1385
I1
sS'tweeting'
p1386
I1
sS'bugs'
p1387
I1
sS'fuckin'
p1388
I1
sS'scaring'
p1389
I1
sS'nebody'
p1390
I1
sS'dream'
p1391
I1
sS'playing'
p1392
I1
sS'jordans'
p1393
I1
sS'mexican'
p1394
I1
sS'help'
p1395
I6
sS'incessantly'
p1396
I1
sS'sooo'
p1397
I3
sS'soon'
p1398
I11
sS'telling'
p1399
I2
sS'isnt'
p1400
I4
sS'paper'
p1401
I2
sS'replies'
p1402
I1
sS'hell'
p1403
I1
sS'itt'
p1404
I1
sS'bizkit'
p1405
I1
sS'bummed'
p1406
I2
sS'pens'
p1407
I2
sS'border'
p1408
I1
sS'actually'
p1409
I6
sS'late'
p1410
I2
sS'detected'
p1411
I1
sS'bows'
p1412
I1
sS'lata'
p1413
I1
sS'thnk'
p1414
I1
sS'bout'
p1415
I2
sS'dayuniversemxit'
p1416
I1
sS'good'
p1417
I25
sS'somebody'
p1418
I1
sS'sucking'
p1419
I1
sS'food'
p1420
I2
sS'goon'
p1421
I1
sS'gadget'
p1422
I1
sS'walls'
p1423
I1
sS'huskies'
p1424
I1
sS'dinger'
p1425
I1
sS'complain'
p1426
I1
sS'sucked'
p1427
I1
sS'marcus'
p1428
I1
sS'everytime'
p1429
I1
sS'nugget'
p1430
I1
sS'lizzie'
p1431
I1
sS'labeling'
p1432
I1
sS'mexicosniff'
p1433
I1
sS'did'
p1434
I10
sS'stopped'
p1435
I1
sS'postcardsmailers'
p1436
I1
sS'trailer'
p1437
I1
sS'referred'
p1438
I1
sS'week'
p1439
I7
sS'gettin'
p1440
I1
sS'weeknd'
p1441
I1
sS'mental'
p1442
I1
sS'offneed'
p1443
I1
sS'house'
p1444
I3
sS'hard'
p1445
I5
sS'haley'
p1446
I2
sS'idea'
p1447
I1
sS'democrat'
p1448
I1
sS'tonite'
p1449
I2
sS'goodnite'
p1450
I1
sS'event'
p1451
I1
sS'really'
p1452
I20
sS'missed'
p1453
I7
sS'ftw'
p1454
I1
sS'item'
p1455
I1
sS'eddings'
p1456
I1
sS'publish'
p1457
I1
sS'anoronreedcourtyoperaunitecomwebservercontent'
p1458
I1
sS'safety'
p1459
I1
sS'paradise'
p1460
I1
sS'lolz'
p1461
I1
sS'offline'
p1462
I1
sS'remodeling'
p1463
I1
sS'ass'
p1464
I4
sS'mourn'
p1465
I1
sS'ast'
p1466
I1
sS'friday'
p1467
I3
sS'guess'
p1468
I12
sS'pub'
p1469
I2
sS'mmm'
p1470
I1
sS'reason'
p1471
I2
sS'maths'
p1472
I1
sS'heads'
p1473
I1
sS'guy'
p1474
I1
sS'definition'
p1475
I1
sS'sytycd'
p1476
I2
sS'brown'
p1477
I2
sS'finland'
p1478
I1
sS'heathers'
p1479
I1
sS'expecting'
p1480
I1
sS'luvly'
p1481
I1
sS'daisy'
p1482
I1
sS'dont'
p1483
I30
sS'feel'
p1484
I16
sS'historian'
p1485
I1
sS'bhai'
p1486
I1
sS'number'
p1487
I2
sS'comfy'
p1488
I1
sS'miss'
p1489
I22
sS'daydamn'
p1490
I1
sS'story'
p1491
I5
sS'cifra'
p1492
I1
sS'temperature'
p1493
I1
sS'divorce'
p1494
I1
sS'gpa'
p1495
I1
sS'paint'
p1496
I1
sS'wonderful'
p1497
I1
sS'passed'
p1498
I3
sS'banana'
p1499
I1
sS'store'
p1500
I4
sS'lease'
p1501
I1
sS'nursery'
p1502
I1
sS'undies'
p1503
I1
sS'para'
p1504
I1
sS'scoobs'
p1505
I1
sS'jamie'
p1506
I1
sS'talvez'
p1507
I1
sS'scooby'
p1508
I1
sS'dentist'
p1509
I2
sS'doctors'
p1510
I1
sS'believe'
p1511
I3
sS'daytona'
p1512
I1
sS'kind'
p1513
I3
sS'bag'
p1514
I2
sS'double'
p1515
I1
sS'voltron'
p1516
I2
sS'stalk'
p1517
I1
sS'motivation'
p1518
I1
sS'phobia'
p1519
I1
sS'outta'
p1520
I1
sS'wasnt'
p1521
I1
sS'recital'
p1522
I1
sS'nodaji'
p1523
I1
sS'elise'
p1524
I1
sS'sell'
p1525
I1
sS'nights'
p1526
I1
sS'dancing'
p1527
I1
sS'lil'
p1528
I1
sS'self'
p1529
I1
sS'useless'
p1530
I2
sS'finding'
p1531
I2
sS'cavs'
p1532
I1
sS'eff'
p1533
I1
sS'failing'
p1534
I3
sS'play'
p1535
I2
sS'added'
p1536
I3
sS'eggs'
p1537
I1
sS'mosh'
p1538
I1
sS'kam'
p1539
I1
sS'jst'
p1540
I1
sS'virus'
p1541
I1
sS'plan'
p1542
I3
sS'eaten'
p1543
I1
sS'hospitol'
p1544
I1
sS'kay'
p1545
I1
sS'wats'
p1546
I1
sS'exe'
p1547
I1
sS'mobile'
p1548
I1
sS'bugaboo'
p1549
I1
sS'kris'
p1550
I1
sS'clean'
p1551
I1
sS'bitchesss'
p1552
I1
sS'houseaw'
p1553
I1
sS'ugh'
p1554
I3
sS'golf'
p1555
I1
sS'wailing'
p1556
I1
sS'booze'
p1557
I1
sS'sprayed'
p1558
I1
sS'stalker'
p1559
I1
sS'newest'
p1560
I1
sS'melody'
p1561
I1
sS'fine'
p1562
I3
sS'flicked'
p1563
I1
sS'choco'
p1564
I1
sS'northern'
p1565
I1
sS'nervous'
p1566
I1
sS'bfi'
p1567
I1
sS'bfs'
p1568
I1
sS'failed'
p1569
I1
sS'pretty'
p1570
I6
sS'resultsno'
p1571
I1
sS'quizzes'
p1572
I1
sS'express'
p1573
I1
sS'sunny'
p1574
I2
sS'grocery'
p1575
I1
sS'feels'
p1576
I3
sS'longest'
p1577
I1
sS'international'
p1578
I1
sS'roomi'
p1579
I1
sS'emails'
p1580
I1
sS'ptosis'
p1581
I1
sS'aramex'
p1582
I1
sS'tmobile'
p1583
I1
sS'cartoons'
p1584
I1
sS'hype'
p1585
I1
sS'dyck'
p1586
I1
sS'wrote'
p1587
I3
sS'scanning'
p1588
I1
sS'art'
p1589
I1
sS'mondayeyes'
p1590
I1
sS'bungie'
p1591
I1
sS'sex'
p1592
I1
sS'hogged'
p1593
I1
sS'leslie'
p1594
I1
sS'close'
p1595
I3
sS'arm'
p1596
I1
sS'repairs'
p1597
I1
sS'tummy'
p1598
I1
sS'deactivate'
p1599
I1
sS'movie'
p1600
I6
sS'currently'
p1601
I1
sS'nutella'
p1602
I1
sS'demons'
p1603
I2
sS'giveway'
p1604
I1
sS'fans'
p1605
I1
sS'distraught'
p1606
I1
sS'rlly'
p1607
I1
sS'transfered'
p1608
I1
sS'sparksbummer'
p1609
I1
sS'compliment'
p1610
I1
sS'missing'
p1611
I8
sS'sold'
p1612
I6
sS'kandie'
p1613
I1
sS'connection'
p1614
I2
sS'trams'
p1615
I1
sS'alot'
p1616
I1
sS'canadians'
p1617
I1
sS'experimental'
p1618
I1
sS'load'
p1619
I1
sS'headed'
p1620
I2
sS'simple'
p1621
I1
sS'sweet'
p1622
I2
sS'manners'
p1623
I1
sS'devstateddd'
p1624
I1
sS'newborn'
p1625
I1
sS'likes'
p1626
I2
sS'omgaga'
p1627
I1
sS'church'
p1628
I4
sS'expensive'
p1629
I2
sS'duo'
p1630
I1
sS'meteorologists'
p1631
I1
sS'creativity'
p1632
I1
sS'whos'
p1633
I1
sS'damn'
p1634
I8
sS'change'
p1635
I1
sS'ireland'
p1636
I1
sS'goodbassplayer'
p1637
I1
sS'meeting'
p1638
I2
sS'lvatt'
p1639
I1
sS'lived'
p1640
I1
sS'flight'
p1641
I1
sS'gay'
p1642
I2
sS'sending'
p1643
I2
sS'awake'
p1644
I5
sS'realms'
p1645
I1
sS'prices'
p1646
I1
sS'towns'
p1647
I1
sS'look'
p1648
I4
sS'steezy'
p1649
I1
sS'raw'
p1650
I1
sS'frozen'
p1651
I1
sS'straight'
p1652
I1
sS'convo'
p1653
I1
sS'replaced'
p1654
I1
sS'homework'
p1655
I2
sS'fun'
p1656
I6
sS'goodwish'
p1657
I1
sS'theres'
p1658
I2
sS'real'
p1659
I1
sS'hoping'
p1660
I3
sS'portugal'
p1661
I1
sS'motors'
p1662
I1
sS'rip'
p1663
I4
sS'hoax'
p1664
I1
sS'itself'
p1665
I1
sS'fucckk'
p1666
I1
sS'voltrons'
p1667
I1
sS'ready'
p1668
I3
sS'rid'
p1669
I1
sS'lmaolt'
p1670
I1
sS'funny'
p1671
I4
sS'squarespce'
p1672
I1
sS'shirt'
p1673
I1
sS'anymore'
p1674
I1
sS'itchy'
p1675
I2
sS'daughters'
p1676
I1
sS'used'
p1677
I1
sS'temporary'
p1678
I1
sS'assignment'
p1679
I1
sS'yesterday'
p1680
I1
sS'moment'
p1681
I3
sS'moving'
p1682
I1
sS'gonna'
p1683
I12
sS'banten'
p1684
I1
sS'brussels'
p1685
I1
sS'stack'
p1686
I2
sS'early'
p1687
I4
sS'lower'
p1688
I1
sS'picky'
p1689
I1
sS'nola'
p1690
I1
sS'anybody'
p1691
I3
sS'person'
p1692
I3
sS'cheer'
p1693
I1
sS'selma'
p1694
I1
sS'knw'
p1695
I1
sS'chemistry'
p1696
I1
sS'winonaever'
p1697
I1
sS'spend'
p1698
I2
sS'darn'
p1699
I1
sS'sims'
p1700
I2
sS'grreat'
p1701
I1
sS'dinnersigh'
p1702
I1
sS'listening'
p1703
I1
sS'doill'
p1704
I1
sS'reviewed'
p1705
I1
sS'distracting'
p1706
I1
sS'iero'
p1707
I1
sS'world'
p1708
I6
sS'elect'
p1709
I1
sS'praying'
p1710
I1
sS'injuries'
p1711
I1
sS'letting'
p1712
I1
sS'cut'
p1713
I2
sS'cup'
p1714
I2
sS'lady'
p1715
I3
sS'cuz'
p1716
I1
sS'source'
p1717
I1
sS'parents'
p1718
I1
sS'exhibition'
p1719
I1
sS'crying'
p1720
I2
sS'infectionjust'
p1721
I1
sS'excited'
p1722
I3
sS'hates'
p1723
I1
sS'build'
p1724
I2
sS'marco'
p1725
I1
sS'motivating'
p1726
I1
sS'emergency'
p1727
I1
sS'big'
p1728
I5
sS'couple'
p1729
I2
sS'unlimited'
p1730
I1
sS'matters'
p1731
I1
sS'game'
p1732
I6
sS'moods'
p1733
I1
sS'sowwy'
p1734
I1
sS'bit'
p1735
I3
sS'wings'
p1736
I1
sS'workn'
p1737
I1
sS'signal'
p1738
I1
sS'capitals'
p1739
I1
sS'ignore'
p1740
I1
sS'communications'
p1741
I1
sS'bukas'
p1742
I1
sS'eek'
p1743
I1
sS'disorder'
p1744
I1
sS'google'
p1745
I1
sS'fucking'
p1746
I4
sS'fathers'
p1747
I2
sS'sighs'
p1748
I1
sS'palm'
p1749
I1
sS'oddly'
p1750
I1
sS'contacts'
p1751
I1
sS'bball'
p1752
I1
sS'lufflies'
p1753
I1
sS'epic'
p1754
I1
sS'prob'
p1755
I1
sS'nose'
p1756
I2
sS'eating'
p1757
I4
sS'laker'
p1758
I1
sS'use'
p1759
I3
sS'rue'
p1760
I1
sS'jazzy'
p1761
I1
sS'stew'
p1762
I1
sS'rur'
p1763
I1
sS'aswell'
p1764
I1
sS'shine'
p1765
I1
sS'tweetwrath'
p1766
I1
sS'wouldnt'
p1767
I1
sS'delish'
p1768
I1
sS'graduation'
p1769
I2
sS'piled'
p1770
I1
sS'idk'
p1771
I1
sS'artbook'
p1772
I1
sS'wanna'
p1773
I13
sS'bleeds'
p1774
I1
sS'silence'
p1775
I1
sS'seeing'
p1776
I1
sS'stitched'
p1777
I1
sS'visit'
p1778
I3
sS'mommy'
p1779
I1
sS'servers'
p1780
I1
sS'tempermental'
p1781
I1
sS'changin'
p1782
I1
sS'lesson'
p1783
I1
sS'katie'
p1784
I2
sS'statistics'
p1785
I1
sS'spam'
p1786
I1
sS'long'
p1787
I4
sS'spaz'
p1788
I1
sS'crackdown'
p1789
I1
sS'summertime'
p1790
I2
sS'suit'
p1791
I1
sS'forward'
p1792
I1
sS'andy'
p1793
I1
sS'bored'
p1794
I4
sS'scared'
p1795
I1
sS'boys'
p1796
I1
sS'lampard'
p1797
I1
sS'properly'
p1798
I1
sS'link'
p1799
I1
sS'alive'
p1800
I1
sS'line'
p1801
I1
sS'penguin'
p1802
I1
sS'tumblr'
p1803
I2
sS'fulfilling'
p1804
I1
sS'fries'
p1805
I1
sS'throug'
p1806
I1
sS'called'
p1807
I2
sS'yelled'
p1808
I1
sS'popularity'
p1809
I1
sS'comming'
p1810
I1
sS'single'
p1811
I2
sS'warning'
p1812
I1
sS'evening'
p1813
I1
sS'chat'
p1814
I1
sS'field'
p1815
I1
sS'wove'
p1816
I1
sS'rainy'
p1817
I3
sS'waiit'
p1818
I1
sS'grr'
p1819
I3
sS'peace'
p1820
I3
sS'bubblegum'
p1821
I1
sS'club'
p1822
I1
sS'nap'
p1823
I1
sS'department'
p1824
I1
sS'jamarcuss'
p1825
I1
sS'nice'
p1826
I5
sS'shrug'
p1827
I1
sS'understatement'
p1828
I1
sS'problems'
p1829
I2
sS'visits'
p1830
I1
sS'meaning'
p1831
I1
sS'rested'
p1832
I1
sS'fishes'
p1833
I1
sS'wizz'
p1834
I1
sS'song'
p1835
I4
sS'ago'
p1836
I2
sS'land'
p1837
I1
sS'happier'
p1838
I1
sS'dvd'
p1839
I2
sS'barkley'
p1840
I1
sS'youtube'
p1841
I2
sS'xbl'
p1842
I1
sS'hella'
p1843
I1
sS'came'
p1844
I3
sS'fresh'
p1845
I1
sS'svu'
p1846
I1
sS'having'
p1847
I6
sS'incorporate'
p1848
I1
sS'results'
p1849
I2
sS'enjoyable'
p1850
I1
sS'hyper'
p1851
I1
sS'stres'
p1852
I1
sS'gossip'
p1853
I1
sS'chillin'
p1854
I1
sS'issues'
p1855
I1
sS'cody'
p1856
I1
sS'itll'
p1857
I2
sS'young'
p1858
I1
sS'send'
p1859
I2
sS'helps'
p1860
I1
sS'pjsi'
p1861
I1
sS'subscription'
p1862
I1
sS'fone'
p1863
I1
sS'epiccc'
p1864
I1
sS'woantitip'
p1865
I1
sS'labels'
p1866
I1
sS'quorn'
p1867
I1
sS'dessert'
p1868
I1
sS'octo'
p1869
I1
sS'wishes'
p1870
I1
sS'pottercastlupinswillows'
p1871
I1
sS'sorrygot'
p1872
I1
sS'tri'
p1873
I1
sS'magic'
p1874
I1
sS'eva'
p1875
I1
sS'shock'
p1876
I1
sS'try'
p1877
I6
sS'race'
p1878
I1
sS'min'
p1879
I1
sS'havent'
p1880
I6
sS'inspection'
p1881
I1
sS'athlete'
p1882
I1
sS'someday'
p1883
I1
sS'everythings'
p1884
I1
sS'waking'
p1885
I1
sS'fold'
p1886
I2
sS'video'
p1887
I4
sS'picked'
p1888
I1
sS'comprehend'
p1889
I1
sS'thighs'
p1890
I1
sS'todaybooo'
p1891
I1
sS'winrc'
p1892
I1
sS'power'
p1893
I1
sS'chicago'
p1894
I1
sS'paddle'
p1895
I1
sS'kidsthey'
p1896
I1
sS'cell'
p1897
I1
sS'waiting'
p1898
I2
sS'experiment'
p1899
I1
sS'bahahaha'
p1900
I1
sS'electricity'
p1901
I1
sS'blender'
p1902
I1
sS'exercise'
p1903
I2
sS'body'
p1904
I2
sS'lea'
p1905
I1
sS'leg'
p1906
I1
sS'faceit'
p1907
I1
sS'pushing'
p1908
I1
sS'punch'
p1909
I2
sS'growing'
p1910
I1
sS'explore'
p1911
I1
sS'intercept'
p1912
I1
sS'let'
p1913
I5
sS'sink'
p1914
I1
sS'making'
p1915
I8
sS'kriss'
p1916
I1
sS'frownies'
p1917
I1
sS'great'
p1918
I13
sS'talent'
p1919
I1
sS'metro'
p1920
I1
sS'leaving'
p1921
I4
sS'popcorn'
p1922
I1
sS'makes'
p1923
I7
sS'thats'
p1924
I18
sS'control'
p1925
I1
sS'apple'
p1926
I2
sS'win'
p1927
I13
sS'app'
p1928
I2
sS'apt'
p1929
I1
sS'wit'
p1930
I1
sS'omgmy'
p1931
I1
sS'apl'
p1932
I1
sS'standing'
p1933
I1
sS'fed'
p1934
I1
sS'cheered'
p1935
I1
sS'crap'
p1936
I3
sS'clocking'
p1937
I1
sS'iced'
p1938
I1
sS'camera'
p1939
I2
sS'coldplay'
p1940
I1
sS'cram'
p1941
I1
sS'jonathan'
p1942
I1
sS'sort'
p1943
I2
sS'dentists'
p1944
I2
sS'started'
p1945
I3
sS'confused'
p1946
I1
sS'sore'
p1947
I1
sS'train'
p1948
I2
sS'baby'
p1949
I6
sS'women'
p1950
I1
sS'customer'
p1951
I1
sS'account'
p1952
I5
sS'meee'
p1953
I1
sS'ride'
p1954
I1
sS'tease'
p1955
I1
sS'praise'
p1956
I2
sS'meet'
p1957
I5
sS'drops'
p1958
I2
sS'didnt'
p1959
I17
sS'tat'
p1960
I1
sS'borrowed'
p1961
I1
sS'moneycant'
p1962
I1
sS'tar'
p1963
I1
sS'providers'
p1964
I1
sS'ferrets'
p1965
I1
sS'tax'
p1966
I1
sS'didmhmm'
p1967
I1
sS'bend'
p1968
I1
sS'twitpic'
p1969
I1
sS'afi'
p1970
I1
sS'lame'
p1971
I1
sS'throwbie'
p1972
I1
sS'toodles'
p1973
I1
sS'fcukk'
p1974
I1
sS'delay'
p1975
I1
sS'overanalyzing'
p1976
I1
sS'paley'
p1977
I1
sS'stop'
p1978
I3
sS'tied'
p1979
I1
sS'bothered'
p1980
I1
sS'leysh'
p1981
I1
sS'terrier'
p1982
I1
sS'cuddling'
p1983
I1
sS'sry'
p1984
I1
sS'light'
p1985
I2
sS'bing'
p1986
I1
sS'guru'
p1987
I1
sS'lines'
p1988
I1
sS'prawns'
p1989
I1
sS'powerpoint'
p1990
I1
sS'vibe'
p1991
I1
sS'honestly'
p1992
I1
sS'realizes'
p1993
I1
sS'allow'
p1994
I1
sS'crawling'
p1995
I1
sS'necklace'
p1996
I1
sS'despite'
p1997
I1
sS'giveaways'
p1998
I1
sS'looks'
p1999
I3
sS'alram'
p2000
I1
sS'horny'
p2001
I1
sS'bunch'
p2002
I1
sS'horsie'
p2003
I1
sS'outer'
p2004
I1
sS'bridget'
p2005
I1
sS'immune'
p2006
I1
sS'responsibilities'
p2007
I1
sS'meantime'
p2008
I1
sS'covered'
p2009
I1
sS'bye'
p2010
I5
sS'gongwer'
p2011
I1
sS'dad'
p2012
I3
sS'crash'
p2013
I1
sS'pure'
p2014
I1
sS'dam'
p2015
I1
sS'dan'
p2016
I1
sS'dat'
p2017
I1
sS'mention'
p2018
I1
sS'aiigght'
p2019
I1
sS'morningall'
p2020
I1
sS'stout'
p2021
I1
sS'ambition'
p2022
I1
sS'realize'
p2023
I1
sS'trae'
p2024
I1
sS'masters'
p2025
I1
sS'university'
p2026
I1
sS'twitterpated'
p2027
I1
sS'amorim'
p2028
I1
sS'melchizedek'
p2029
I1
sS'weather'
p2030
I4
sS'truth'
p2031
I1
sS'tombre'
p2032
I1
sS'glasses'
p2033
I1
sS'bueno'
p2034
I1
sS'drizzy'
p2035
I1
sS'doing'
p2036
I8
sS'globe'
p2037
I1
sS'apologize'
p2038
I1
sS'mas'
p2039
I1
sS'bluetooth'
p2040
I1
sS'garros'
p2041
I1
sS'books'
p2042
I1
sS'cheeseburglar'
p2043
I1
sS'special'
p2044
I1
sS'matt'
p2045
I1
sS'entertainment'
p2046
I1
sS'stayin'
p2047
I1
sS'hilarious'
p2048
I2
sS'cause'
p2049
I4
sS'red'
p2050
I2
sS'shut'
p2051
I2
sS'dictionary'
p2052
I1
sS'frank'
p2053
I2
sS'ecl'
p2054
I1
sS'jeff'
p2055
I1
sS'plsi'
p2056
I1
sS'completely'
p2057
I1
sS'york'
p2058
I1
sS'missionsan'
p2059
I1
sS'craving'
p2060
I1
sS'log'
p2061
I1
sS'scary'
p2062
I2
sS'backwards'
p2063
I1
sS'yard'
p2064
I1
sS'gelatin'
p2065
I1
sS'ask'
p2066
I1
sS'david'
p2067
I2
sS'chilly'
p2068
I1
sS'davis'
p2069
I2
sS'chills'
p2070
I1
sS'spilt'
p2071
I1
sS'blown'
p2072
I1
sS'hayhis'
p2073
I1
sS'bitch'
p2074
I3
sS'bjork'
p2075
I1
sS'owning'
p2076
I1
sS'sharon'
p2077
I1
sS'sadly'
p2078
I1
sS'bears'
p2079
I1
sS'sadlt'
p2080
I1
sS'myspace'
p2081
I2
sS'pavel'
p2082
I1
sS'bosco'
p2083
I1
sS'final'
p2084
I2
sS'beard'
p2085
I1
sS'rsl'
p2086
I1
sS'testing'
p2087
I1
sS'stars'
p2088
I1
sS'shallow'
p2089
I1
sS'beatings'
p2090
I1
sS'depressing'
p2091
I1
sS'environmental'
p2092
I1
sS'july'
p2093
I2
sS'updating'
p2094
I1
sS'boring'
p2095
I4
sS'bother'
p2096
I2
sS'popping'
p2097
I1
sS'bed'
p2098
I11
sS'tortured'
p2099
I1
sS'gayy'
p2100
I1
sS'loves'
p2101
I3
sS'steer'
p2102
I1
sS'drunk'
p2103
I1
sS'julian'
p2104
I1
sS'seville'
p2105
I1
sS'tonight'
p2106
I15
sS'gentle'
p2107
I1
sS'need'
p2108
I14
sS'turn'
p2109
I3
sS'apparently'
p2110
I1
sS'mii'
p2111
I1
sS'catholic'
p2112
I1
sS'afraid'
p2113
I2
sS'congrats'
p2114
I3
sS'mia'
p2115
I1
sS'allergies'
p2116
I1
sS'mic'
p2117
I1
sS'able'
p2118
I1
sS'battles'
p2119
I1
sS'bagel'
p2120
I1
sS'chaise'
p2121
I2
sS'asshole'
p2122
I2
sS'soap'
p2123
I1
sS'sequel'
p2124
I1
sS'unless'
p2125
I2
sS'nancy'
p2126
I1
sS'aww'
p2127
I6
sS'sewing'
p2128
I1
sS'centro'
p2129
I1
sS'ylefi'
p2130
I1
sS'wht'
p2131
I1
sS'device'
p2132
I1
sS'highschool'
p2133
I1
sS'class'
p2134
I3
sS'traveltips'
p2135
I1
sS'gather'
p2136
I1
sS'upset'
p2137
I1
sS'face'
p2138
I3
sS'looked'
p2139
I1
sS'goodniqht'
p2140
I1
sS'pictures'
p2141
I2
sS'relievers'
p2142
I1
sS'skinny'
p2143
I1
sS'skunk'
p2144
I1
sS'fact'
p2145
I3
sS'affair'
p2146
I1
sS'oreos'
p2147
I1
sS'dbl'
p2148
I1
sS'text'
p2149
I3
sS'charles'
p2150
I1
sS'spanking'
p2151
I1
sS'bring'
p2152
I2
sS'manchester'
p2153
I2
sS'bedroom'
p2154
I1
sS'rough'
p2155
I1
sS'pleased'
p2156
I2
sS'knowledge'
p2157
I1
sS'mumbai'
p2158
I1
sS'brighten'
p2159
I1
sS'jam'
p2160
I1
sS'riding'
p2161
I2
sS'hope'
p2162
I12
sS'woots'
p2163
I1
sS'watching'
p2164
I1
sS'beat'
p2165
I1
sS'offthis'
p2166
I1
sS'michigan'
p2167
I1
sS'stavros'
p2168
I1
sS'awwh'
p2169
I2
sS'joint'
p2170
I1
sS'awww'
p2171
I1
sS'ones'
p2172
I2
sS'words'
p2173
I1
sS'probably'
p2174
I2
sS'timing'
p2175
I1
sS'chips'
p2176
I1
sS'crabs'
p2177
I1
sS'femmes'
p2178
I1
sS'farrah'
p2179
I3
sS'ended'
p2180
I2
sS'shy'
p2181
I1
sS'ughh'
p2182
I2
sS'taxes'
p2183
I1
sS'calling'
p2184
I1
sS'bacon'
p2185
I1
sS'stuff'
p2186
I3
sS'waterfalls'
p2187
I1
sS'grac'
p2188
I1
sS'btw'
p2189
I1
sS'temporarily'
p2190
I1
sS'national'
p2191
I2
sS'gutterd'
p2192
I1
sS'spazzing'
p2193
I1
sS'blowdrying'
p2194
I1
sS'stats'
p2195
I1
sS'destiny'
p2196
I1
sS'luv'
p2197
I4
sS'attempting'
p2198
I1
sS'nightmare'
p2199
I1
sS'tend'
p2200
I1
sS'icecream'
p2201
I1
sS'written'
p2202
I1
sS'closed'
p2203
I4
sS'horrible'
p2204
I3
sS'flickr'
p2205
I1
sS'youll'
p2206
I3
sS'email'
p2207
I1
sS'lushhh'
p2208
I1
sS'bought'
p2209
I2
sS'exam'
p2210
I1
sS'job'
p2211
I1
sS'floss'
p2212
I1
sS'nominations'
p2213
I1
sS'jon'
p2214
I1
sS'ughhits'
p2215
I1
sS'commands'
p2216
I1
sS'sniff'
p2217
I1
sS'joke'
p2218
I1
sS'taking'
p2219
I2
sS'presentations'
p2220
I1
sS'kosher'
p2221
I1
sS'april'
p2222
I1
sS'atleast'
p2223
I1
sS'tlk'
p2224
I1
sS'jersey'
p2225
I2
sS'hehehe'
p2226
I1
sS'chealea'
p2227
I1
sS'malcolm'
p2228
I1
sS'fixedcant'
p2229
I1
sS'walk'
p2230
I2
sS'pouring'
p2231
I1
sS'yay'
p2232
I6
sS'wills'
p2233
I1
sS'faltam'
p2234
I1
sS'bbc'
p2235
I1
sS'suposed'
p2236
I1
sS'slowly'
p2237
I1
sS'aunties'
p2238
I1
sS'curtain'
p2239
I1
sS'hottest'
p2240
I1
sS'naples'
p2241
I1
sS'bbq'
p2242
I1
sS'suggested'
p2243
I1
sS'diversity'
p2244
I2
sS'painted'
p2245
I1
sS'hmv'
p2246
I1
sS'koolaid'
p2247
I1
sS'hmm'
p2248
I2
sS'finished'
p2249
I1
sS'muslims'
p2250
I1
sS'fellow'
p2251
I1
sS'awhhe'
p2252
I1
sS'homes'
p2253
I1
sS'theyve'
p2254
I1
sS'value'
p2255
I1
sS'homee'
p2256
I1
sS'cuzin'
p2257
I1
sS'ncaa'
p2258
I1
sS'britains'
p2259
I1
sS'churchgirl'
p2260
I1
sS'jdawg'
p2261
I1
sS'site'
p2262
I1
sS'noo'
p2263
I2
sS'watched'
p2264
I1
sS'colostomy'
p2265
I1
sS'tattoo'
p2266
I1
sS'fkn'
p2267
I1
sS'progressing'
p2268
I1
sS'funniest'
p2269
I1
sS'member'
p2270
I1
sS'irissa'
p2271
I1
sS'inch'
p2272
I2
sS'party'
p2273
I2
sS'gets'
p2274
I2
sS'homesch'
p2275
I1
sS'ball'
p2276
I1
sS'mysapce'
p2277
I1
sS'drink'
p2278
I1
sS'throughbut'
p2279
I1
sS'huhuhu'
p2280
I1
sS'student'
p2281
I1
sS'fucked'
p2282
I1
sS'reflection'
p2283
I1
sS'banging'
p2284
I1
sS'thought'
p2285
I2
sS'sadat'
p2286
I1
sS'limp'
p2287
I1
sS'muscle'
p2288
I1
sS'drawing'
p2289
I1
sS'usual'
p2290
I1
sS'nadal'
p2291
I1
sS'carrie'
p2292
I1
sS'bananas'
p2293
I1
sS'cried'
p2294
I2
sS'hands'
p2295
I1
sS'dose'
p2296
I1
sS'cries'
p2297
I2
sS'paul'
p2298
I1
sS'happiness'
p2299
I2
sS'begin'
p2300
I1
sS'web'
p2301
I1
sS'generous'
p2302
I1
sS'wee'
p2303
I1
sS'wed'
p2304
I1
sS'point'
p2305
I2
sS'sky'
p2306
I1
sS'day'
p2307
I52
sS'add'
p2308
I1
sS'wet'
p2309
I1
sS'baithing'
p2310
I1
sS'ought'
p2311
I1
sS'match'
p2312
I1
sS'mytc'
p2313
I1
sS'sweep'
p2314
I1
sS'increases'
p2315
I1
sS'royalty'
p2316
I1
sS'know'
p2317
I25
sS'behold'
p2318
I1
sS'overdosed'
p2319
I1
sS'loss'
p2320
I2
sS'showing'
p2321
I1
sS'like'
p2322
I34
sS'lost'
p2323
I8
sS'candy'
p2324
I1
sS'loses'
p2325
I1
sS'mmmaybe'
p2326
I1
sS'chica'
p2327
I1
sS'candygirls'
p2328
I1
sS'works'
p2329
I1
sS'page'
p2330
I1
sS'replacement'
p2331
I1
sS'shed'
p2332
I1
sS'morrea'
p2333
I1
sS'twitter'
p2334
I21
sS'library'
p2335
I1
sS'hair'
p2336
I2
sS'francisco'
p2337
I1
sS'holler'
p2338
I1
sS'shes'
p2339
I3
sS'cleveland'
p2340
I1
sS'home'
p2341
I16
sS'drizzle'
p2342
I1
sS'happens'
p2343
I1
sS'lead'
p2344
I2
sS'literally'
p2345
I1
sS'kettle'
p2346
I1
sS'fedex'
p2347
I1
sS'doer'
p2348
I1
sS'does'
p2349
I6
sS'dinara'
p2350
I1
sS'allokayim'
p2351
I1
sS'grrr'
p2352
I2
sS'schedule'
p2353
I1
sS'bowling'
p2354
I1
sS'kristis'
p2355
I1
sS'pressure'
p2356
I1
sS'fwy'
p2357
I1
sS'worthy'
p2358
I1
sS'kerrang'
p2359
I1
sS'panel'
p2360
I1
sS'sister'
p2361
I3
sS'carried'
p2362
I1
sS'getting'
p2363
I11
sS'universe'
p2364
I1
sS'napp'
p2365
I1
sS'yeessshh'
p2366
I1
sS'tongue'
p2367
I1
sS'blessd'
p2368
I1
sS'swimming'
p2369
I1
sS'washington'
p2370
I1
sS'doesnt'
p2371
I9
sS'nonrobsten'
p2372
I1
sS'female'
p2373
I2
sS'thoughits'
p2374
I1
sS'commission'
p2375
I1
sS'transfer'
p2376
I1
sS'apps'
p2377
I1
sS'palatine'
p2378
I1
sS'yrs'
p2379
I1
sS'cousinnn'
p2380
I1
sS'buy'
p2381
I3
sS'north'
p2382
I2
sS'mattwasgood'
p2383
I1
sS'bitches'
p2384
I1
sS'buu'
p2385
I1
sS'subjective'
p2386
I1
sS'construction'
p2387
I1
sS'ughhh'
p2388
I2
sS'byyeee'
p2389
I1
sS'ear'
p2390
I1
sS'eat'
p2391
I1
sS'celly'
p2392
I1
sS'temp'
p2393
I1
sS'wish'
p2394
I6
sS'bck'
p2395
I1
sS'hosting'
p2396
I1
sS'signed'
p2397
I1
sS'cake'
p2398
I1
sS'problem'
p2399
I2
sS'minutes'
p2400
I3
sS'display'
p2401
I1
sS'inspite'
p2402
I1
sS'pie'
p2403
I1
sS'pig'
p2404
I1
sS'beats'
p2405
I1
sS'conan'
p2406
I1
sS'goodness'
p2407
I1
sS'paraguay'
p2408
I1
sS'arre'
p2409
I1
sS'contest'
p2410
I2
sS'dressed'
p2411
I2
sS'book'
p2412
I2
sS'boom'
p2413
I1
sS'sick'
p2414
I5
sS'booo'
p2415
I1
sS'impactlol'
p2416
I1
sS'talkin'
p2417
I2
sS'bubu'
p2418
I1
sS'xxx'
p2419
I2
sS'star'
p2420
I2
sS'quilting'
p2421
I1
sS'monday'
p2422
I4
sS'stay'
p2423
I2
sS'chance'
p2424
I2
sS'kinda'
p2425
I2
sS'friends'
p2426
I8
sS'goin'
p2427
I1
sS'kevins'
p2428
I1
sS'fuuck'
p2429
I2
sS'oral'
p2430
I1
sS'rule'
p2431
I1
sS'understand'
p2432
I1
sS'gardens'
p2433
I1
s.